; Function Attrs: mustprogress nofree norecurse nosync nounwind willreturn memory(read, inaccessiblemem: none) uwtable
define zeroext i1 @H5C_cache_image_pending(ptr noundef readonly captures(none) %0) local_unnamed_addr #0 {
  %2 = load i8, ptr @H5C_init_g, align 1, !tbaa !3, !range !7, !noundef !8
  %3 = trunc nuw i8 %2 to i1
  %4 = load i8, ptr @H5_libterm_g, align 1, !range !7
  %5 = trunc nuw i8 %4 to i1
  %6 = xor i1 %5, true
  %7 = select i1 %3, i1 true, i1 %6
  br i1 %7, label %8, label %17, !prof !9

8:                                                ; preds = %1
  %9 = getelementptr inbounds nuw i8, ptr %0, i64 527633
  %10 = load i8, ptr %9, align 1, !tbaa !10, !range !7, !noundef !8
  %11 = trunc nuw i8 %10 to i1
  br i1 %11, label %12, label %17

12:                                               ; preds = %8
  %13 = getelementptr inbounds nuw i8, ptr %0, i64 527634
  %14 = load i8, ptr %13, align 2, !tbaa !24, !range !7, !noundef !8
  %15 = trunc nuw i8 %14 to i1
  %16 = xor i1 %15, true
  br label %17

17:                                               ; preds = %8, %12, %1
  %.0 = phi i1 [ true, %1 ], [ false, %8 ], [ %16, %12 ]
  ret i1 %.0
}